; Function Attrs: nounwind uwtable
define hidden void @zif_proc_nice(ptr noundef %0, ptr nocapture noundef writeonly %1) local_unnamed_addr #0 {
  %3 = alloca i64, align 8
  %4 = getelementptr inbounds i8, ptr %0, i64 44
  %5 = load i32, ptr %4, align 4
  %cond = icmp eq i32 %5, 1
  br i1 %cond, label %6, label %.thread79

6:                                                ; preds = %2
  %7 = getelementptr inbounds i8, ptr %0, i64 80
  %8 = getelementptr inbounds i8, ptr %0, i64 88
  %9 = load i8, ptr %8, align 8
  %10 = icmp eq i8 %9, 4
  br i1 %10, label %.thread69, label %12

.thread69:                                        ; preds = %6
  %11 = load i64, ptr %7, align 8
  store i64 %11, ptr %3, align 8
  br label %.thread87

12:                                               ; preds = %6
  %13 = call zeroext i1 @zend_parse_arg_long_slow(ptr noundef nonnull %7, ptr noundef nonnull %3, i32 noundef 1) #10
  %.fr = freeze i1 %13
  br i1 %.fr, label %.thread87, label %14

.thread79:                                        ; preds = %2
  tail call void @zend_wrong_parameters_count_error(i32 noundef 1, i32 noundef 1) #10
  br label %14

14:                                               ; preds = %12, %.thread79
  %.05686 = phi i32 [ 1, %.thread79 ], [ 9, %12 ]
  %.05785 = phi i32 [ 0, %.thread79 ], [ 1, %12 ]
  %.05984 = phi ptr [ null, %.thread79 ], [ %7, %12 ]
  call void @zend_wrong_parameter_error(i32 noundef %.05686, i32 noundef %.05785, ptr noundef null, i32 noundef 0, ptr noundef %.05984) #10
  br label %24

.thread87:                                        ; preds = %12, %.thread69
  %15 = tail call ptr @__errno_location() #13
  store i32 0, ptr %15, align 4
  %16 = load i64, ptr %3, align 8
  %17 = trunc i64 %16 to i32
  %18 = call i32 @nice(i32 noundef %17) #10
  %19 = load i32, ptr %15, align 4
  %.not63 = icmp eq i32 %19, 0
  br i1 %.not63, label %22, label %20

20:                                               ; preds = %.thread87
  call void (ptr, i32, ptr, ...) @php_error_docref(ptr noundef null, i32 noundef 2, ptr noundef nonnull @.str.10) #10
  %21 = getelementptr inbounds i8, ptr %1, i64 8
  store i32 2, ptr %21, align 8
  br label %24

22:                                               ; preds = %.thread87
  %23 = getelementptr inbounds i8, ptr %1, i64 8
  store i32 3, ptr %23, align 8
  br label %24

24:                                               ; preds = %22, %20, %14
  ret void
}